; Function Attrs: mustprogress nofree norecurse nosync nounwind willreturn memory(read, inaccessiblemem: none) uwtable
define hidden noundef zeroext i1 @_ZNK8facebook6hermes17HermesRuntimeImpl13isArrayBufferERKNS_3jsi6ObjectE(ptr nocapture nonnull readnone align 8 %this, ptr nocapture noundef nonnull readonly align 8 dereferenceable(8) %obj) unnamed_addr #13 align 2 {
entry:
  %0 = load ptr, ptr %obj, align 8
  %1 = getelementptr inbounds i8, ptr %0, i64 16
  %agg.tmp.sroa.0.0.copyload = load i64, ptr %1, align 8
  %cmp.i.i = icmp ugt i64 %agg.tmp.sroa.0.0.copyload, -844424930131969
  br i1 %cmp.i.i, label %land.rhs.i, label %_ZN6hermes2vm5vmisaINS0_13JSArrayBufferEEEbNS0_11HermesValueE.exit

land.rhs.i:                                       ; preds = %entry
  %and.i.i = and i64 %agg.tmp.sroa.0.0.copyload, 281474976710655
  %2 = inttoptr i64 %and.i.i to ptr
  %bf.load.i.i.i.i.i.i.i.i.i = load i32, ptr %2, align 4
  %bf.lshr.i.i.mask.i.i.i.i.i.i.i = and i32 %bf.load.i.i.i.i.i.i.i.i.i, -16777216
  %cmp.i.i.i.i.i.i.i = icmp eq i32 %bf.lshr.i.i.mask.i.i.i.i.i.i.i, 553648128
  br label %_ZN6hermes2vm5vmisaINS0_13JSArrayBufferEEEbNS0_11HermesValueE.exit

_ZN6hermes2vm5vmisaINS0_13JSArrayBufferEEEbNS0_11HermesValueE.exit: ; preds = %entry, %land.rhs.i
  %3 = phi i1 [ false, %entry ], [ %cmp.i.i.i.i.i.i.i, %land.rhs.i ]
  ret i1 %3
}